target datalayout = "e-m:e-p270:32:32-p271:32:32-p272:64:64-i64:64-i128:128-f80:128-n8:16:32:64-S128"
target triple = "x86_64-pc-linux-gnu"

%struct.pmi2_job_info = type { %struct.slurm_step_id_msg, i32, i32, i32, i32, i32, ptr, i32, i32, ptr, ptr, ptr, ptr, ptr, ptr, ptr, ptr }
%struct.slurm_step_id_msg = type { i64, i32, i32, i32 }
%struct.pmi2_tree_info = type { ptr, ptr, i32, i32, i32, i32, i16, ptr, ptr }

@plugin_type = external constant [0 x i8], align 1
@job_info = external global %struct.pmi2_job_info, align 8
@.str.57 = private unnamed_addr constant [53 x i8] c"%s: %s: mpi/pmi2: in _handle_kvs_fence, from task %d\00", align 1
@__func__._handle_kvs_fence = private unnamed_addr constant [18 x i8] c"_handle_kvs_fence\00", align 1
@tasks_to_wait = external global i32, align 4
@children_to_wait = external global i32, align 4
@tree_info = external global %struct.pmi2_tree_info, align 8
@.str.58 = private unnamed_addr constant [43 x i8] c"mpi/pmi2: %d failed to send temp kvs to %s\00", align 1
@.str.59 = private unnamed_addr constant [5 x i8] c"srun\00", align 1
@.str.60 = private unnamed_addr constant [34 x i8] c"mpi/pmi2: failed to send temp kvs\00", align 1
@waiting_kvs_resp = external global i32, align 4
@.str.61 = private unnamed_addr constant [79 x i8] c"%s: %s: mpi/pmi2: out _handle_kvs_fence, tasks_to_wait=%d, children_to_wait=%d\00", align 1

; Function Attrs: nounwind uwtable
define internal i32 @_handle_kvs_fence(i32 noundef %0, i32 noundef %1, ptr noundef %2) #0 {
  %4 = alloca i32, align 4
  %5 = alloca i32, align 4
  %6 = alloca ptr, align 8
  %7 = alloca i32, align 4
  store i32 %0, ptr %4, align 4
  store i32 %1, ptr %5, align 4
  store ptr %2, ptr %6, align 8
  call void @llvm.lifetime.start.p0(i64 4, ptr %7) #6
  store i32 0, ptr %7, align 4
  br label %8

8:                                                ; preds = %3
  br label %9

9:                                                ; preds = %8
  %10 = call i32 @slurm_get_log_level()
  %11 = icmp sge i32 %10, 7
  br i1 %11, label %12, label %18

12:                                               ; preds = %9
  %13 = load ptr, ptr getelementptr inbounds nuw (%struct.pmi2_job_info, ptr @job_info, i32 0, i32 6), align 8
  %14 = load i32, ptr %5, align 4
  %15 = sext i32 %14 to i64
  %16 = getelementptr inbounds i32, ptr %13, i64 %15
  %17 = load i32, ptr %16, align 4
  call void (i32, ptr, ...) @slurm_log_var(i32 noundef 7, ptr noundef @.str.57, ptr noundef @plugin_type, ptr noundef @__func__._handle_kvs_fence, i32 noundef %17)
  br label %18

18:                                               ; preds = %12, %9
  br label %19

19:                                               ; preds = %18
  br label %20

20:                                               ; preds = %19
  br label %21

21:                                               ; preds = %20
  br label %22

22:                                               ; preds = %21
  %23 = load i32, ptr @tasks_to_wait, align 4
  %24 = icmp eq i32 %23, 0
  br i1 %24, label %25, label %31

25:                                               ; preds = %22
  %26 = load i32, ptr @children_to_wait, align 4
  %27 = icmp eq i32 %26, 0
  br i1 %27, label %28, label %31

28:                                               ; preds = %25
  %29 = load i32, ptr getelementptr inbounds nuw (%struct.pmi2_job_info, ptr @job_info, i32 0, i32 5), align 8
  store i32 %29, ptr @tasks_to_wait, align 4
  %30 = load i32, ptr getelementptr inbounds nuw (%struct.pmi2_tree_info, ptr @tree_info, i32 0, i32 3), align 4
  store i32 %30, ptr @children_to_wait, align 4
  br label %31

31:                                               ; preds = %28, %25, %22
  %32 = load i32, ptr @tasks_to_wait, align 4
  %33 = add nsw i32 %32, -1
  store i32 %33, ptr @tasks_to_wait, align 4
  %34 = load i32, ptr @tasks_to_wait, align 4
  %35 = icmp eq i32 %34, 0
  br i1 %35, label %36, label %58

36:                                               ; preds = %31
  %37 = load i32, ptr @children_to_wait, align 4
  %38 = icmp eq i32 %37, 0
  br i1 %38, label %39, label %58

39:                                               ; preds = %36
  %40 = call i32 @temp_kvs_send()
  store i32 %40, ptr %7, align 4
  %41 = load i32, ptr %7, align 4
  %42 = icmp ne i32 %41, 0
  br i1 %42, label %43, label %56

43:                                               ; preds = %39
  %44 = load ptr, ptr getelementptr inbounds nuw (%struct.pmi2_tree_info, ptr @tree_info, i32 0, i32 1), align 8
  %45 = icmp ne ptr %44, null
  br i1 %45, label %46, label %47

46:                                               ; preds = %43
  br label %48

47:                                               ; preds = %43
  br label %48

48:                                               ; preds = %47, %46
  %49 = phi ptr [ %44, %46 ], [ @.str.59, %47 ]
  %50 = call i32 (ptr, ...) @slurm_error(ptr noundef @.str.58, i32 noundef 305, ptr noundef %49)
  %51 = load i32, ptr %7, align 4
  %52 = call i32 @send_kvs_fence_resp_to_clients(i32 noundef %51, ptr noundef @.str.60)
  %53 = load i32, ptr getelementptr inbounds nuw (%struct.slurm_step_id_msg, ptr @job_info, i32 0, i32 1), align 8
  %54 = load i32, ptr getelementptr inbounds nuw (%struct.slurm_step_id_msg, ptr @job_info, i32 0, i32 3), align 8
  %55 = call i32 @slurm_kill_job_step(i32 noundef %53, i32 noundef %54, i16 noundef zeroext 9, i16 noundef zeroext 0)
  br label %57

56:                                               ; preds = %39
  store i32 1, ptr @waiting_kvs_resp, align 4
  br label %57

57:                                               ; preds = %56, %48
  br label %58

58:                                               ; preds = %57, %36, %31
  br label %59

59:                                               ; preds = %58
  br label %60

60:                                               ; preds = %59
  %61 = call i32 @slurm_get_log_level()
  %62 = icmp sge i32 %61, 7
  br i1 %62, label %63, label %66

63:                                               ; preds = %60
  %64 = load i32, ptr @tasks_to_wait, align 4
  %65 = load i32, ptr @children_to_wait, align 4
  call void (i32, ptr, ...) @slurm_log_var(i32 noundef 7, ptr noundef @.str.61, ptr noundef @plugin_type, ptr noundef @__func__._handle_kvs_fence, i32 noundef %64, i32 noundef %65)
  br label %66

66:                                               ; preds = %63, %60
  br label %67

67:                                               ; preds = %66
  br label %68

68:                                               ; preds = %67
  br label %69

69:                                               ; preds = %68
  br label %70

70:                                               ; preds = %69
  %71 = load i32, ptr %7, align 4
  call void @llvm.lifetime.end.p0(i64 4, ptr %7) #6
  ret i32 %71
}