; Function Attrs: nounwind uwtable
define internal i32 @_handle_kvs_fence(i32 %0, i32 noundef %1, ptr readnone captures(none) %2) #0 {
  %4 = tail call i32 @slurm_get_log_level() #7
  %5 = icmp sgt i32 %4, 6
  br i1 %5, label %6, label %11

6:                                                ; preds = %3
  %7 = load ptr, ptr getelementptr inbounds nuw (i8, ptr @job_info, i64 48), align 8
  %8 = sext i32 %1 to i64
  %9 = getelementptr inbounds i32, ptr %7, i64 %8
  %10 = load i32, ptr %9, align 4
  tail call void (i32, ptr, ...) @slurm_log_var(i32 noundef 7, ptr noundef nonnull @.str.57, ptr noundef nonnull @plugin_type, ptr noundef nonnull @__func__._handle_kvs_fence, i32 noundef %10) #7
  br label %11

11:                                               ; preds = %6, %3
  %12 = load i32, ptr @tasks_to_wait, align 4
  %13 = icmp eq i32 %12, 0
  %14 = load i32, ptr @children_to_wait, align 4
  %15 = icmp eq i32 %14, 0
  %or.cond = select i1 %13, i1 %15, i1 false
  br i1 %or.cond, label %16, label %19

16:                                               ; preds = %11
  %17 = load i32, ptr getelementptr inbounds nuw (i8, ptr @job_info, i64 40), align 8
  %18 = load i32, ptr getelementptr inbounds nuw (i8, ptr @tree_info, i64 20), align 4
  store i32 %18, ptr @children_to_wait, align 4
  br label %19

19:                                               ; preds = %16, %11
  %20 = phi i32 [ %18, %16 ], [ %14, %11 ]
  %21 = phi i32 [ %17, %16 ], [ %12, %11 ]
  %22 = add nsw i32 %21, -1
  store i32 %22, ptr @tasks_to_wait, align 4
  %23 = icmp eq i32 %22, 0
  %24 = icmp eq i32 %20, 0
  %or.cond3 = select i1 %23, i1 %24, i1 false
  br i1 %or.cond3, label %25, label %35

25:                                               ; preds = %19
  %26 = tail call i32 @temp_kvs_send() #7
  %.not = icmp eq i32 %26, 0
  br i1 %.not, label %34, label %27

27:                                               ; preds = %25
  %28 = load ptr, ptr getelementptr inbounds nuw (i8, ptr @tree_info, i64 8), align 8
  %.not8 = icmp eq ptr %28, null
  %..str.59 = select i1 %.not8, ptr @.str.59, ptr %28
  %29 = tail call i32 (ptr, ...) @slurm_error(ptr noundef nonnull @.str.58, i32 noundef 305, ptr noundef nonnull %..str.59) #7
  %30 = tail call i32 @send_kvs_fence_resp_to_clients(i32 noundef %26, ptr noundef nonnull @.str.60) #7
  %31 = load i32, ptr getelementptr inbounds nuw (i8, ptr @job_info, i64 8), align 8
  %32 = load i32, ptr getelementptr inbounds nuw (i8, ptr @job_info, i64 16), align 8
  %33 = tail call i32 @slurm_kill_job_step(i32 noundef %31, i32 noundef %32, i16 noundef zeroext 9, i16 noundef zeroext 0) #7
  br label %35

34:                                               ; preds = %25
  store i32 1, ptr @waiting_kvs_resp, align 4
  br label %35

35:                                               ; preds = %27, %34, %19
  %.0 = phi i32 [ %26, %27 ], [ 0, %34 ], [ 0, %19 ]
  %36 = tail call i32 @slurm_get_log_level() #7
  %37 = icmp sgt i32 %36, 6
  br i1 %37, label %38, label %41

38:                                               ; preds = %35
  %39 = load i32, ptr @tasks_to_wait, align 4
  %40 = load i32, ptr @children_to_wait, align 4
  tail call void (i32, ptr, ...) @slurm_log_var(i32 noundef 7, ptr noundef nonnull @.str.61, ptr noundef nonnull @plugin_type, ptr noundef nonnull @__func__._handle_kvs_fence, i32 noundef %39, i32 noundef %40) #7
  br label %41

41:                                               ; preds = %38, %35
  ret i32 %.0
}